; Function Attrs: mustprogress uwtable
define dso_local noundef zeroext i1 @_ZN4Luau6hasTagERKNS_8PropertyERKNSt7__cxx1112basic_stringIcSt11char_traitsIcESaIcEEE(ptr noundef nonnull readonly align 8 captures(none) dereferenceable(176) %0, ptr noundef nonnull align 8 dereferenceable(32) %1) local_unnamed_addr #2 {
  %3 = getelementptr inbounds nuw i8, ptr %0, i64 80
  %4 = load ptr, ptr %3, align 8, !tbaa !243
  %5 = getelementptr inbounds nuw i8, ptr %0, i64 88
  %6 = load ptr, ptr %5, align 8, !tbaa !243
  %7 = tail call ptr @_ZSt9__find_ifIN9__gnu_cxx17__normal_iteratorIPKNSt7__cxx1112basic_stringIcSt11char_traitsIcESaIcEEESt6vectorIS7_SaIS7_EEEENS0_5__ops16_Iter_equals_valIS8_EEET_SH_SH_T0_St26random_access_iterator_tag(ptr %4, ptr %6, ptr nonnull align 8 dereferenceable(32) %1)
  %8 = load ptr, ptr %5, align 8, !tbaa !243
  %9 = icmp ne ptr %7, %8
  ret i1 %9
}